target datalayout = "e-m:e-p270:32:32-p271:32:32-p272:64:64-i64:64-i128:128-f80:128-n8:16:32:64-S128"
target triple = "x86_64-unknown-linux-gnu"

%"class.std::set.0" = type { %"class.std::_Rb_tree.1" }
%"class.std::_Rb_tree.1" = type { %"struct.std::_Rb_tree<QuantLib::Observer *, QuantLib::Observer *, std::_Identity<QuantLib::Observer *>, std::less<QuantLib::Observer *>>::_Rb_tree_impl" }
%"struct.std::_Rb_tree<QuantLib::Observer *, QuantLib::Observer *, std::_Identity<QuantLib::Observer *>, std::less<QuantLib::Observer *>>::_Rb_tree_impl" = type { [8 x i8], %"struct.std::_Rb_tree_header" }
%"struct.std::_Rb_tree_header" = type { %"struct.std::_Rb_tree_node_base", i64 }
%"struct.std::_Rb_tree_node_base" = type { i32, ptr, ptr, ptr }
%"class.boost::detail::shared_count" = type { ptr }
%"class.std::set" = type { %"class.std::_Rb_tree" }
%"class.std::_Rb_tree" = type { %"struct.std::_Rb_tree<boost::shared_ptr<QuantLib::Observable>, boost::shared_ptr<QuantLib::Observable>, std::_Identity<boost::shared_ptr<QuantLib::Observable>>, std::less<boost::shared_ptr<QuantLib::Observable>>>::_Rb_tree_impl" }
%"struct.std::_Rb_tree<boost::shared_ptr<QuantLib::Observable>, boost::shared_ptr<QuantLib::Observable>, std::_Identity<boost::shared_ptr<QuantLib::Observable>>, std::less<boost::shared_ptr<QuantLib::Observable>>>::_Rb_tree_impl" = type { [8 x i8], %"struct.std::_Rb_tree_header" }
%"class.QuantLib::Observable" = type { ptr, %"class.std::set.0" }
%"class.QuantLib::Observer" = type { ptr, %"class.std::set" }
%"class.QuantLib::DayCounter" = type { %"class.boost::shared_ptr.16" }
%"class.boost::shared_ptr.16" = type { ptr, %"class.boost::detail::shared_count" }
%"class.boost::shared_ptr.39" = type { ptr, %"class.boost::detail::shared_count" }
%"class.std::vector.40" = type { %"struct.std::_Vector_base.41" }
%"struct.std::_Vector_base.41" = type { %"struct.std::_Vector_base<std::vector<double>, std::allocator<std::vector<double>>>::_Vector_impl" }
%"struct.std::_Vector_base<std::vector<double>, std::allocator<std::vector<double>>>::_Vector_impl" = type { %"struct.std::_Vector_base<std::vector<double>, std::allocator<std::vector<double>>>::_Vector_impl_data" }
%"struct.std::_Vector_base<std::vector<double>, std::allocator<std::vector<double>>>::_Vector_impl_data" = type { ptr, ptr, ptr }
%"class.std::vector.31" = type { %"struct.std::_Vector_base.32" }
%"struct.std::_Vector_base.32" = type { %"struct.std::_Vector_base<std::vector<QuantLib::Handle<QuantLib::Quote>>, std::allocator<std::vector<QuantLib::Handle<QuantLib::Quote>>>>::_Vector_impl" }
%"struct.std::_Vector_base<std::vector<QuantLib::Handle<QuantLib::Quote>>, std::allocator<std::vector<QuantLib::Handle<QuantLib::Quote>>>>::_Vector_impl" = type { %"struct.std::_Vector_base<std::vector<QuantLib::Handle<QuantLib::Quote>>, std::allocator<std::vector<QuantLib::Handle<QuantLib::Quote>>>>::_Vector_impl_data" }
%"struct.std::_Vector_base<std::vector<QuantLib::Handle<QuantLib::Quote>>, std::allocator<std::vector<QuantLib::Handle<QuantLib::Quote>>>>::_Vector_impl_data" = type { ptr, ptr, ptr }
%"struct.std::_Vector_base.22" = type { %"struct.std::_Vector_base<QuantLib::Date, std::allocator<QuantLib::Date>>::_Vector_impl" }
%"struct.std::_Vector_base<QuantLib::Date, std::allocator<QuantLib::Date>>::_Vector_impl" = type { %"struct.std::_Vector_base<QuantLib::Date, std::allocator<QuantLib::Date>>::_Vector_impl_data" }
%"struct.std::_Vector_base<QuantLib::Date, std::allocator<QuantLib::Date>>::_Vector_impl_data" = type { ptr, ptr, ptr }
%"class.QuantLib::StrippedOptionlet" = type { %"class.QuantLib::StrippedOptionletBase.base", %"class.QuantLib::Calendar", i32, i32, %"class.QuantLib::DayCounter", %"class.boost::shared_ptr.39", i32, double, i64, %"class.std::vector.21", %"class.std::vector.26", %"class.std::vector.26", %"class.std::vector.40", %"class.std::vector.31", %"class.std::vector.40", %"class.QuantLib::Observable", %"class.QuantLib::Observer" }
%"class.QuantLib::StrippedOptionletBase.base" = type { %"class.QuantLib::LazyObject.base" }
%"class.QuantLib::LazyObject.base" = type <{ ptr, i8, i8, i8, i8 }>
%"class.QuantLib::Calendar" = type { %"class.boost::shared_ptr.17" }
%"class.boost::shared_ptr.17" = type { ptr, %"class.boost::detail::shared_count" }
%"class.std::vector.21" = type { %"struct.std::_Vector_base.22" }
%"class.std::vector.26" = type { %"struct.std::_Vector_base.27" }
%"struct.std::_Vector_base.27" = type { %"struct.std::_Vector_base<double, std::allocator<double>>::_Vector_impl" }
%"struct.std::_Vector_base<double, std::allocator<double>>::_Vector_impl" = type { %"struct.std::_Vector_base<double, std::allocator<double>>::_Vector_impl_data" }
%"struct.std::_Vector_base<double, std::allocator<double>>::_Vector_impl_data" = type { ptr, ptr, ptr }
%"class.boost::detail::sp_counted_base" = type { ptr, i32, i32 }

; Function Attrs: inlinehint mustprogress nounwind uwtable
define linkonce_odr void @_ZN5boost6detail16atomic_incrementEPj(ptr noundef %pw) #5 comdat {
entry:
  %pw.addr = alloca ptr, align 8
  %.atomictmp = alloca i32, align 4
  %atomic-temp = alloca i32, align 4
  store ptr %pw, ptr %pw.addr, align 8, !tbaa !3
  %0 = load ptr, ptr %pw.addr, align 8, !tbaa !3
  store i32 1, ptr %.atomictmp, align 4, !tbaa !24
  %1 = load i32, ptr %.atomictmp, align 4
  %2 = atomicrmw add ptr %0, i32 %1 monotonic, align 4
  store i32 %2, ptr %atomic-temp, align 4
  ret void
}

; Function Attrs: noinline noreturn nounwind uwtable
define linkonce_odr hidden void @__clang_call_terminate(ptr noundef %0) #3 comdat {
  %2 = call ptr @__cxa_begin_catch(ptr %0) #12
  call void @_ZSt9terminatev() #21
  unreachable
}

; Function Attrs: mustprogress uwtable
define linkonce_odr void @_ZN5boost6detail15sp_counted_base12add_ref_copyEv(ptr noundef nonnull align 8 dereferenceable(16) %this) #2 comdat align 2 {
entry:
  %this.addr = alloca ptr, align 8
  store ptr %this, ptr %this.addr, align 8, !tbaa !3
  %this1 = load ptr, ptr %this.addr, align 8
  %use_count_ = getelementptr inbounds nuw %"class.boost::detail::sp_counted_base", ptr %this1, i32 0, i32 1
  call void @_ZN5boost6detail16atomic_incrementEPj(ptr noundef %use_count_)
  ret void
}

; Function Attrs: mustprogress nounwind uwtable
define linkonce_odr void @_ZN5boost6detail12shared_countC2ERKS1_(ptr noundef nonnull align 8 dereferenceable(8) %this, ptr noundef nonnull align 8 dereferenceable(8) %r) unnamed_addr #1 comdat align 2 personality ptr @__gxx_personality_v0 {
entry:
  %this.addr = alloca ptr, align 8
  %r.addr = alloca ptr, align 8
  store ptr %this, ptr %this.addr, align 8, !tbaa !3
  store ptr %r, ptr %r.addr, align 8, !tbaa !3
  %this1 = load ptr, ptr %this.addr, align 8
  %pi_ = getelementptr inbounds nuw %"class.boost::detail::shared_count", ptr %this1, i32 0, i32 0
  %0 = load ptr, ptr %r.addr, align 8, !tbaa !3
  %pi_2 = getelementptr inbounds nuw %"class.boost::detail::shared_count", ptr %0, i32 0, i32 0
  %1 = load ptr, ptr %pi_2, align 8, !tbaa !123
  store ptr %1, ptr %pi_, align 8, !tbaa !123
  %pi_3 = getelementptr inbounds nuw %"class.boost::detail::shared_count", ptr %this1, i32 0, i32 0
  %2 = load ptr, ptr %pi_3, align 8, !tbaa !123
  %cmp = icmp ne ptr %2, null
  br i1 %cmp, label %if.then, label %if.end

if.then:                                          ; preds = %entry
  %pi_4 = getelementptr inbounds nuw %"class.boost::detail::shared_count", ptr %this1, i32 0, i32 0
  %3 = load ptr, ptr %pi_4, align 8, !tbaa !123
  invoke void @_ZN5boost6detail15sp_counted_base12add_ref_copyEv(ptr noundef nonnull align 8 dereferenceable(16) %3)
          to label %invoke.cont unwind label %terminate.lpad

invoke.cont:                                      ; preds = %if.then
  br label %if.end

if.end:                                           ; preds = %invoke.cont, %entry
  ret void

terminate.lpad:                                   ; preds = %if.then
  %4 = landingpad { ptr, i32 }
          catch ptr null
  %5 = extractvalue { ptr, i32 } %4, 0
  call void @__clang_call_terminate(ptr %5) #21
  unreachable
}

; Function Attrs: mustprogress nounwind uwtable
define linkonce_odr void @_ZN5boost10shared_ptrIN8QuantLib8Calendar4ImplEEC2ERKS4_(ptr noundef nonnull align 8 dereferenceable(16) %this, ptr noundef nonnull align 8 dereferenceable(16) %r) unnamed_addr #1 comdat align 2 {
entry:
  %this.addr = alloca ptr, align 8
  %r.addr = alloca ptr, align 8
  store ptr %this, ptr %this.addr, align 8, !tbaa !3
  store ptr %r, ptr %r.addr, align 8, !tbaa !3
  %this1 = load ptr, ptr %this.addr, align 8
  %px = getelementptr inbounds nuw %"class.boost::shared_ptr.17", ptr %this1, i32 0, i32 0
  %0 = load ptr, ptr %r.addr, align 8, !tbaa !3
  %px2 = getelementptr inbounds nuw %"class.boost::shared_ptr.17", ptr %0, i32 0, i32 0
  %1 = load ptr, ptr %px2, align 8, !tbaa !128
  store ptr %1, ptr %px, align 8, !tbaa !128
  %pn = getelementptr inbounds nuw %"class.boost::shared_ptr.17", ptr %this1, i32 0, i32 1
  %2 = load ptr, ptr %r.addr, align 8, !tbaa !3
  %pn3 = getelementptr inbounds nuw %"class.boost::shared_ptr.17", ptr %2, i32 0, i32 1
  call void @_ZN5boost6detail12shared_countC2ERKS1_(ptr noundef nonnull align 8 dereferenceable(8) %pn, ptr noundef nonnull align 8 dereferenceable(8) %pn3) #12
  ret void
}

; Function Attrs: inlinehint mustprogress nounwind uwtable
define linkonce_odr void @_ZN8QuantLib8CalendarC2ERKS0_(ptr noundef nonnull align 8 dereferenceable(16) %this, ptr noundef nonnull align 8 dereferenceable(16) %0) unnamed_addr #5 comdat align 2 {
entry:
  %this.addr = alloca ptr, align 8
  %.addr = alloca ptr, align 8
  store ptr %this, ptr %this.addr, align 8, !tbaa !3
  store ptr %0, ptr %.addr, align 8, !tbaa !3
  %this1 = load ptr, ptr %this.addr, align 8
  %impl_ = getelementptr inbounds nuw %"class.QuantLib::Calendar", ptr %this1, i32 0, i32 0
  %1 = load ptr, ptr %.addr, align 8, !tbaa !3
  %impl_2 = getelementptr inbounds nuw %"class.QuantLib::Calendar", ptr %1, i32 0, i32 0
  call void @_ZN5boost10shared_ptrIN8QuantLib8Calendar4ImplEEC2ERKS4_(ptr noundef nonnull align 8 dereferenceable(16) %impl_, ptr noundef nonnull align 8 dereferenceable(16) %impl_2) #12
  ret void
}

; Function Attrs: mustprogress nounwind uwtable
define void @_ZNK8QuantLib17StrippedOptionlet8calendarEv(ptr dead_on_unwind noalias writable sret(%"class.QuantLib::Calendar") align 8 %agg.result, ptr noundef nonnull align 8 dereferenceable(240) %this) unnamed_addr #1 align 2 {
entry:
  %result.ptr = alloca ptr, align 8
  %this.addr = alloca ptr, align 8
  store ptr %agg.result, ptr %result.ptr, align 8
  store ptr %this, ptr %this.addr, align 8, !tbaa !3
  %this1 = load ptr, ptr %this.addr, align 8
  %calendar_ = getelementptr inbounds nuw %"class.QuantLib::StrippedOptionlet", ptr %this1, i32 0, i32 1
  call void @_ZN8QuantLib8CalendarC2ERKS0_(ptr noundef nonnull align 8 dereferenceable(16) %agg.result, ptr noundef nonnull align 8 dereferenceable(16) %calendar_) #12
  ret void
}